; Function Attrs: mustprogress uwtable
define hidden noundef zeroext i1 @_ZN6google8protobuf25EncodedDescriptorDatabase27FindFileContainingExtensionERKNSt7__cxx1112basic_stringIcSt11char_traitsIcESaIcEEEiPNS0_19FileDescriptorProtoE(ptr noundef nonnull readonly align 8 captures(none) dereferenceable(40) %0, ptr noundef nonnull readonly align 8 captures(none) dereferenceable(32) %1, i32 noundef %2, ptr noundef %3) unnamed_addr #6 align 2 {
  %5 = getelementptr inbounds nuw i8, ptr %0, i64 8
  %6 = load ptr, ptr %5, align 8, !tbaa !81
  %7 = load ptr, ptr %1, align 8, !tbaa !25
  %8 = getelementptr inbounds nuw i8, ptr %1, i64 8
  %9 = load i64, ptr %8, align 8, !tbaa !29
  %10 = tail call { ptr, i32 } @_ZN6google8protobuf25EncodedDescriptorDatabase15DescriptorIndex13FindExtensionENS0_20stringpiece_internal11StringPieceEi(ptr noundef nonnull align 8 dereferenceable(240) %6, ptr %7, i64 %9, i32 noundef %2)
  %.fca.0.extract = extractvalue { ptr, i32 } %10, 0
  %11 = icmp eq ptr %.fca.0.extract, null
  br i1 %11, label %_ZN6google8protobuf25EncodedDescriptorDatabase10MaybeParseESt4pairIPKviEPNS0_19FileDescriptorProtoE.exit, label %12

12:                                               ; preds = %4
  %.fca.1.extract = extractvalue { ptr, i32 } %10, 1
  %13 = tail call noundef zeroext i1 @_ZN6google8protobuf11MessageLite14ParseFromArrayEPKvi(ptr noundef nonnull align 8 dereferenceable(16) %3, ptr noundef nonnull %.fca.0.extract, i32 noundef %.fca.1.extract)
  br label %_ZN6google8protobuf25EncodedDescriptorDatabase10MaybeParseESt4pairIPKviEPNS0_19FileDescriptorProtoE.exit

_ZN6google8protobuf25EncodedDescriptorDatabase10MaybeParseESt4pairIPKviEPNS0_19FileDescriptorProtoE.exit: ; preds = %4, %12
  %.0.i = phi i1 [ %13, %12 ], [ false, %4 ]
  ret i1 %.0.i
}